target datalayout = "e-m:e-p270:32:32-p271:32:32-p272:64:64-i64:64-i128:128-f80:128-n8:16:32:64-S128"
target triple = "x86_64-pc-linux-gnu"

%struct.ADPCMChannelStatus = type { i32, i16, i32, i32, i32, i32, i32, i32, i32 }
%union.anon.0 = type { i32 }

; Function Attrs: alwaysinline nounwind willreturn memory(none) uwtable
define internal signext i16 @av_clip_int16_c(i32 noundef %0) #3 {
  %2 = alloca i16, align 2
  %3 = alloca i32, align 4
  store i32 %0, ptr %3, align 4, !tbaa !9
  %4 = load i32, ptr %3, align 4, !tbaa !9
  %5 = add i32 %4, 32768
  %6 = and i32 %5, -65536
  %7 = icmp ne i32 %6, 0
  br i1 %7, label %8, label %13

8:                                                ; preds = %1
  %9 = load i32, ptr %3, align 4, !tbaa !9
  %10 = ashr i32 %9, 31
  %11 = xor i32 %10, 32767
  %12 = trunc i32 %11 to i16
  store i16 %12, ptr %2, align 2
  br label %16

13:                                               ; preds = %1
  %14 = load i32, ptr %3, align 4, !tbaa !9
  %15 = trunc i32 %14 to i16
  store i16 %15, ptr %2, align 2
  br label %16

16:                                               ; preds = %13, %8
  %17 = load i16, ptr %2, align 2
  ret i16 %17
}

; Function Attrs: inlinehint nounwind willreturn memory(none) uwtable
define internal i32 @sign_extend(i32 noundef %0, i32 noundef %1) #2 {
  %3 = alloca i32, align 4
  %4 = alloca i32, align 4
  %5 = alloca i32, align 4
  %6 = alloca %union.anon.0, align 4
  store i32 %0, ptr %3, align 4, !tbaa !9
  store i32 %1, ptr %4, align 4, !tbaa !9
  call void @llvm.lifetime.start.p0(i64 4, ptr %5) #11
  %7 = load i32, ptr %4, align 4, !tbaa !9
  %8 = zext i32 %7 to i64
  %9 = sub i64 32, %8
  %10 = trunc i64 %9 to i32
  store i32 %10, ptr %5, align 4, !tbaa !9
  call void @llvm.lifetime.start.p0(i64 4, ptr %6) #11
  %11 = load i32, ptr %3, align 4, !tbaa !9
  %12 = load i32, ptr %5, align 4, !tbaa !9
  %13 = shl i32 %11, %12
  store i32 %13, ptr %6, align 4, !tbaa !15
  %14 = load i32, ptr %6, align 4, !tbaa !15
  %15 = load i32, ptr %5, align 4, !tbaa !9
  %16 = ashr i32 %14, %15
  call void @llvm.lifetime.end.p0(i64 4, ptr %6) #11
  call void @llvm.lifetime.end.p0(i64 4, ptr %5) #11
  ret i32 %16
}

; Function Attrs: nounwind uwtable
define signext i16 @ff_adpcm_argo_expand_nibble(ptr noundef %0, i32 noundef %1, i32 noundef %2, i32 noundef %3) #0 {
  %5 = alloca ptr, align 8
  %6 = alloca i32, align 4
  %7 = alloca i32, align 4
  %8 = alloca i32, align 4
  %9 = alloca i32, align 4
  store ptr %0, ptr %5, align 8, !tbaa !4
  store i32 %1, ptr %6, align 4, !tbaa !9
  store i32 %2, ptr %7, align 4, !tbaa !9
  store i32 %3, ptr %8, align 4, !tbaa !9
  call void @llvm.lifetime.start.p0(i64 4, ptr %9) #11
  %10 = load i32, ptr %6, align 4, !tbaa !9
  %11 = call i32 @sign_extend(i32 noundef %10, i32 noundef 4) #12
  %12 = load i32, ptr %7, align 4, !tbaa !9
  %13 = shl i32 1, %12
  %14 = mul nsw i32 %11, %13
  store i32 %14, ptr %9, align 4, !tbaa !9
  %15 = load i32, ptr %8, align 4, !tbaa !9
  %16 = icmp ne i32 %15, 0
  br i1 %16, label %17, label %29

17:                                               ; preds = %4
  %18 = load ptr, ptr %5, align 8, !tbaa !4
  %19 = getelementptr inbounds nuw %struct.ADPCMChannelStatus, ptr %18, i32 0, i32 4
  %20 = load i32, ptr %19, align 4, !tbaa !11
  %21 = mul nsw i32 8, %20
  %22 = load ptr, ptr %5, align 8, !tbaa !4
  %23 = getelementptr inbounds nuw %struct.ADPCMChannelStatus, ptr %22, i32 0, i32 5
  %24 = load i32, ptr %23, align 4, !tbaa !14
  %25 = mul nsw i32 4, %24
  %26 = sub nsw i32 %21, %25
  %27 = load i32, ptr %9, align 4, !tbaa !9
  %28 = add nsw i32 %27, %26
  store i32 %28, ptr %9, align 4, !tbaa !9
  br label %36

29:                                               ; preds = %4
  %30 = load ptr, ptr %5, align 8, !tbaa !4
  %31 = getelementptr inbounds nuw %struct.ADPCMChannelStatus, ptr %30, i32 0, i32 4
  %32 = load i32, ptr %31, align 4, !tbaa !11
  %33 = mul nsw i32 4, %32
  %34 = load i32, ptr %9, align 4, !tbaa !9
  %35 = add nsw i32 %34, %33
  store i32 %35, ptr %9, align 4, !tbaa !9
  br label %36

36:                                               ; preds = %29, %17
  %37 = load i32, ptr %9, align 4, !tbaa !9
  %38 = ashr i32 %37, 2
  %39 = call signext i16 @av_clip_int16_c(i32 noundef %38) #12
  %40 = sext i16 %39 to i32
  store i32 %40, ptr %9, align 4, !tbaa !9
  %41 = load ptr, ptr %5, align 8, !tbaa !4
  %42 = getelementptr inbounds nuw %struct.ADPCMChannelStatus, ptr %41, i32 0, i32 4
  %43 = load i32, ptr %42, align 4, !tbaa !11
  %44 = load ptr, ptr %5, align 8, !tbaa !4
  %45 = getelementptr inbounds nuw %struct.ADPCMChannelStatus, ptr %44, i32 0, i32 5
  store i32 %43, ptr %45, align 4, !tbaa !14
  %46 = load i32, ptr %9, align 4, !tbaa !9
  %47 = load ptr, ptr %5, align 8, !tbaa !4
  %48 = getelementptr inbounds nuw %struct.ADPCMChannelStatus, ptr %47, i32 0, i32 4
  store i32 %46, ptr %48, align 4, !tbaa !11
  %49 = load i32, ptr %9, align 4, !tbaa !9
  %50 = trunc i32 %49 to i16
  call void @llvm.lifetime.end.p0(i64 4, ptr %9) #11
  ret i16 %50
}