; Function Attrs: mustprogress nofree norecurse nosync nounwind willreturn memory(argmem: readwrite) uwtable
define signext i16 @ff_adpcm_argo_expand_nibble(ptr noundef captures(none) %0, i32 noundef %1, i32 noundef %2, i32 noundef %3) local_unnamed_addr #0 {
  %.not = icmp eq i32 %3, 0
  %5 = getelementptr inbounds nuw i8, ptr %0, i64 16
  %6 = load i32, ptr %5, align 4, !tbaa !4
  br i1 %.not, label %13, label %7

7:                                                ; preds = %4
  %8 = shl nsw i32 %6, 3
  %9 = getelementptr inbounds nuw i8, ptr %0, i64 20
  %10 = load i32, ptr %9, align 4, !tbaa !10
  %11 = shl nsw i32 %10, 2
  %12 = sub nsw i32 %8, %11
  br label %15

13:                                               ; preds = %4
  %14 = shl nsw i32 %6, 2
  br label %15

15:                                               ; preds = %13, %7
  %.pn = phi i32 [ %12, %7 ], [ %14, %13 ]
  %16 = shl i32 %1, 28
  %17 = ashr exact i32 %16, 28
  %18 = shl i32 %17, %2
  %.0 = add nsw i32 %.pn, %18
  %19 = ashr i32 %.0, 2
  %20 = tail call i32 @llvm.smax.i32(i32 %19, i32 -32768)
  %21 = tail call i32 @llvm.smin.i32(i32 %20, i32 32767)
  %.0.i = trunc nsw i32 %21 to i16
  %22 = getelementptr inbounds nuw i8, ptr %0, i64 16
  %23 = getelementptr inbounds nuw i8, ptr %0, i64 20
  store i32 %6, ptr %23, align 4, !tbaa !10
  store i32 %21, ptr %22, align 4, !tbaa !4
  ret i16 %.0.i
}